(dp1
I25
(dp2
S'becameSuitTime'
p3
F1445374856.1930001
sS'savedBy'
p4
NsS'track'
p5
S's'
sS'numFloors'
p6
I2
sS'difficulty'
p7
I1
sS'state'
p8
S'suit'
p9
sS'block'
p10
I25
ssI34
(dp11
g3
F1445374726.3039999
sg4
Nsg5
S'l'
sg6
I3
sg7
I2
sg8
g9
sg10
I34
ssI35
(dp12
g3
F1445374681.9820001
sg4
Nsg5
S's'
sg6
I1
sg7
I1
sg8
S'cogdo'
p13
sg10
I35
ss.