(dp1
I8
(dp2
S'becameSuitTime'
p3
F1445374655.6760001
sS'savedBy'
p4
NsS'track'
p5
S's'
sS'numFloors'
p6
I2
sS'difficulty'
p7
I2
sS'state'
p8
S'suit'
p9
sS'block'
p10
I8
ssI1
(dp11
g3
F1445374890.7620001
sg4
Nsg5
S's'
sg6
I3
sg7
I2
sg8
S'cogdo'
p12
sg10
I1
ssI26
(dp13
g3
F1445374964.714
sg4
Nsg5
S's'
sg6
I2
sg7
I2
sg8
g9
sg10
I26
ssI17
(dp14
g3
F1445374726.9760001
sg4
Nsg5
S'm'
sg6
I1
sg7
I2
sg8
g9
sg10
I17
ssI7
(dp15
g3
F1445374840.7
sg4
Nsg5
S's'
sg6
I2
sg7
I3
sg8
g9
sg10
I7
ss.