(dp1
I58
(dp2
S'becameSuitTime'
p3
F1445375064.069
sS'savedBy'
p4
NsS'track'
p5
S's'
sS'numFloors'
p6
I1
sS'difficulty'
p7
I1
sS'state'
p8
S'suit'
p9
sS'block'
p10
I58
ssI18
(dp11
g3
F1445374942.0610001
sg4
Nsg5
S's'
sg6
I2
sg7
I2
sg8
S'cogdo'
p12
sg10
I18
ssI11
(dp13
g3
F1445375197.3870001
sg4
Nsg5
S's'
sg6
I1
sg7
I2
sg8
g9
sg10
I11
ssI45
(dp14
g3
F1445374903.175
sg4
Nsg5
S's'
sg6
I2
sg7
I2
sg8
g9
sg10
I45
ss.