(dp1
I24
(dp2
S'becameSuitTime'
p3
F1445375139.7149999
sS'savedBy'
p4
NsS'track'
p5
S's'
sS'numFloors'
p6
I2
sS'difficulty'
p7
I2
sS'state'
p8
S'cogdo'
p9
sS'block'
p10
I24
ssI32
(dp11
g3
F1445374778.9130001
sg4
Nsg5
S's'
sg6
I1
sg7
I0
sg8
S'suit'
p12
sg10
I32
ssI52
(dp13
g3
F1445374744.9820001
sg4
Nsg5
S'm'
sg6
I2
sg7
I2
sg8
g12
sg10
I52
ss.