(dp1
I41
(dp2
S'becameSuitTime'
p3
F1445291943.2049999
sS'savedBy'
p4
NsS'track'
p5
S's'
sS'numFloors'
p6
I3
sS'difficulty'
p7
I2
sS'state'
p8
S'suit'
p9
sS'block'
p10
I41
ssI14
(dp11
g3
F1445292074.6819999
sg4
Nsg5
S'm'
sg6
I1
sg7
I0
sg8
g9
sg10
I14
ss.