(dp1
I10
(dp2
S'becameSuitTime'
p3
F1445375145.585
sS'savedBy'
p4
NsS'track'
p5
S's'
sS'numFloors'
p6
I3
sS'difficulty'
p7
I4
sS'state'
p8
S'suit'
p9
sS'block'
p10
I10
ssI35
(dp11
g3
F1445374811.2950001
sg4
Nsg5
S's'
sg6
I3
sg7
I6
sg8
g9
sg10
I35
ssI30
(dp12
g3
F1445374837.0580001
sg4
Nsg5
S's'
sg6
I4
sg7
I4
sg8
S'cogdo'
p13
sg10
I30
ssI22
(dp14
g3
F1445374769.4779999
sg4
Nsg5
S's'
sg6
I4
sg7
I5
sg8
g13
sg10
I22
ssI31
(dp15
g3
F1445375014.023
sg4
Nsg5
S's'
sg6
I2
sg7
I4
sg8
g9
sg10
I31
ss.